; Function Attrs: mustprogress nounwind uwtable
define hidden noundef ptr @_ZN31JfrNonJavaThreadIteratorAdapter4nextEv(ptr noundef nonnull align 8 dereferenceable(24) %0) local_unnamed_addr #0 align 2 {
  %2 = getelementptr inbounds i8, ptr %0, i64 16
  %3 = load ptr, ptr %2, align 8
  %4 = getelementptr inbounds i8, ptr %0, i64 8
  br label %5

5:                                                ; preds = %8, %1
  %6 = load ptr, ptr %4, align 8
  %7 = icmp eq ptr %6, null
  br i1 %7, label %_ZL20next_non_java_threadRN13NonJavaThread8IteratorE.exit, label %8

8:                                                ; preds = %5
  tail call void @_ZN13NonJavaThread8Iterator4stepEv(ptr noundef nonnull align 8 dereferenceable(16) %0) #5
  %9 = getelementptr i8, ptr %6, i64 778
  %.val.i = load i8, ptr %9, align 2
  %10 = trunc i8 %.val.i to i1
  br i1 %10, label %5, label %_ZL20next_non_java_threadRN13NonJavaThread8IteratorE.exit, !llvm.loop !9

_ZL20next_non_java_threadRN13NonJavaThread8IteratorE.exit: ; preds = %5, %8
  store ptr %6, ptr %2, align 8
  ret ptr %3
}